; Function Attrs: nounwind uwtable
define internal fastcc range(i32 -5, 1) i32 @make_absent_tail(ptr noundef nonnull writeonly captures(none) initializes((0, 8)) %0, ptr noundef nonnull writeonly captures(none) initializes((0, 8)) %1, i32 noundef %2, ptr noundef captures(none) %3) unnamed_addr #2 {
  %5 = alloca [2 x ptr], align 16
  call void @llvm.lifetime.start.p0(i64 16, ptr nonnull %5) #24
  store ptr null, ptr %1, align 8, !tbaa !112
  store ptr null, ptr %0, align 8, !tbaa !112
  %6 = getelementptr inbounds nuw i8, ptr %5, i64 8
  %7 = getelementptr inbounds nuw i8, ptr %3, i64 240
  %8 = load i32, ptr %7, align 8, !tbaa !205
  %9 = add nsw i32 %8, 1
  store i32 %9, ptr %7, align 8, !tbaa !205
  %calloc.i.i = tail call noalias noundef dereferenceable_or_null(72) ptr @calloc(i64 1, i64 72)
  %10 = icmp eq ptr %calloc.i.i, null
  br i1 %10, label %onig_node_free.exit37, label %11

11:                                               ; preds = %4
  store i32 10, ptr %calloc.i.i, align 8, !tbaa !10
  %12 = getelementptr inbounds nuw i8, ptr %calloc.i.i, i64 28
  store i32 %8, ptr %12, align 4, !tbaa !10
  %13 = getelementptr inbounds nuw i8, ptr %calloc.i.i, i64 16
  store i32 1, ptr %13, align 8, !tbaa !10
  %14 = getelementptr inbounds nuw i8, ptr %calloc.i.i, i64 20
  store i32 2, ptr %14, align 4, !tbaa !10
  %calloc.i.i29 = tail call noalias noundef dereferenceable_or_null(72) ptr @calloc(i64 1, i64 72)
  store ptr %calloc.i.i29, ptr %5, align 16, !tbaa !112
  %15 = icmp eq ptr %calloc.i.i29, null
  br i1 %15, label %onig_node_free.exit, label %16

16:                                               ; preds = %11
  store i32 10, ptr %calloc.i.i29, align 8, !tbaa !10
  %17 = getelementptr inbounds nuw i8, ptr %calloc.i.i29, i64 28
  store i32 %8, ptr %17, align 4, !tbaa !10
  %18 = getelementptr inbounds nuw i8, ptr %calloc.i.i29, i64 16
  store i32 2, ptr %18, align 8, !tbaa !10
  %19 = getelementptr inbounds nuw i8, ptr %calloc.i.i29, i64 20
  store i32 2, ptr %19, align 4, !tbaa !10
  %calloc.i.i31 = tail call noalias noundef dereferenceable_or_null(72) ptr @calloc(i64 1, i64 72)
  store ptr %calloc.i.i31, ptr %6, align 8, !tbaa !112
  %20 = icmp eq ptr %calloc.i.i31, null
  br i1 %20, label %onig_node_free.exit, label %21

21:                                               ; preds = %16
  store i32 10, ptr %calloc.i.i31, align 8, !tbaa !10
  %22 = call fastcc noundef ptr @make_list_or_alt(i32 noundef 7, i32 noundef 2, ptr noundef nonnull readonly %5)
  %23 = icmp eq ptr %22, null
  br i1 %23, label %onig_node_free.exit, label %24

24:                                               ; preds = %21
  store ptr %22, ptr %6, align 8, !tbaa !112
  %calloc.i.i33 = tail call noalias noundef dereferenceable_or_null(72) ptr @calloc(i64 1, i64 72)
  store ptr %calloc.i.i33, ptr %5, align 16, !tbaa !112
  %25 = icmp eq ptr %calloc.i.i33, null
  br i1 %25, label %onig_node_free.exit, label %26

26:                                               ; preds = %24
  store i32 10, ptr %calloc.i.i33, align 8, !tbaa !10
  %27 = getelementptr inbounds nuw i8, ptr %calloc.i.i33, i64 28
  store i32 %2, ptr %27, align 4, !tbaa !10
  %28 = getelementptr inbounds nuw i8, ptr %calloc.i.i33, i64 16
  store i32 2, ptr %28, align 8, !tbaa !10
  %29 = getelementptr inbounds nuw i8, ptr %calloc.i.i33, i64 20
  store i32 2, ptr %29, align 4, !tbaa !10
  %30 = call fastcc noundef ptr @make_list_or_alt(i32 noundef 8, i32 noundef 2, ptr noundef nonnull readonly %5)
  %31 = icmp eq ptr %30, null
  br i1 %31, label %onig_node_free.exit, label %32

32:                                               ; preds = %26
  store ptr %calloc.i.i, ptr %0, align 8, !tbaa !112
  store ptr %30, ptr %1, align 8, !tbaa !112
  br label %onig_node_free.exit37

onig_node_free.exit:                              ; preds = %26, %21, %11, %16, %24
  %33 = phi ptr [ %22, %24 ], [ null, %16 ], [ null, %11 ], [ %calloc.i.i31, %21 ], [ %22, %26 ]
  %34 = phi ptr [ null, %24 ], [ %calloc.i.i29, %16 ], [ null, %11 ], [ %calloc.i.i29, %21 ], [ %calloc.i.i33, %26 ]
  tail call fastcc void @node_free_body(ptr noundef nonnull %calloc.i.i)
  tail call void @free(ptr noundef nonnull %calloc.i.i) #24
  %35 = icmp eq ptr %34, null
  br i1 %35, label %onig_node_free.exit36, label %36

36:                                               ; preds = %onig_node_free.exit
  tail call fastcc void @node_free_body(ptr noundef nonnull %34)
  tail call void @free(ptr noundef nonnull %34) #24
  br label %onig_node_free.exit36

onig_node_free.exit36:                            ; preds = %onig_node_free.exit, %36
  %37 = icmp eq ptr %33, null
  br i1 %37, label %onig_node_free.exit37, label %38

38:                                               ; preds = %onig_node_free.exit36
  tail call fastcc void @node_free_body(ptr noundef nonnull %33)
  tail call void @free(ptr noundef nonnull %33) #24
  br label %onig_node_free.exit37

onig_node_free.exit37:                            ; preds = %4, %38, %onig_node_free.exit36, %32
  %.0 = phi i32 [ 0, %32 ], [ -5, %onig_node_free.exit36 ], [ -5, %38 ], [ -5, %4 ]
  call void @llvm.lifetime.end.p0(i64 16, ptr nonnull %5) #24
  ret i32 %.0
}